; Function Attrs: nofree norecurse nosync nounwind memory(argmem: readwrite) uwtable
define internal void @blend_softlight_8bit(ptr noundef readonly captures(none) %0, i64 noundef %1, ptr noundef readonly captures(none) %2, i64 noundef %3, ptr noundef writeonly captures(none) %4, i64 noundef %5, i64 noundef %6, i64 noundef %7, ptr noundef readonly captures(none) %8, ptr readnone captures(none) %9) #6 {
  %11 = getelementptr inbounds nuw i8, ptr %8, i64 8
  %12 = load double, ptr %11, align 8, !tbaa !70
  %13 = fptrunc nsz double %12 to float
  %14 = icmp sgt i64 %7, 0
  %15 = icmp sgt i64 %6, 0
  %or.cond = and i1 %14, %15
  br i1 %or.cond, label %.preheader.us, label %._crit_edge50

.preheader.us:                                    ; preds = %10, %._crit_edge.us
  %indvars.iv54 = phi i64 [ %indvars.iv.next55, %._crit_edge.us ], [ 0, %10 ]
  %.03648.us = phi ptr [ %38, %._crit_edge.us ], [ %4, %10 ]
  %.03747.us = phi ptr [ %40, %._crit_edge.us ], [ %2, %10 ]
  %.03846.us = phi ptr [ %39, %._crit_edge.us ], [ %0, %10 ]
  br label %16

16:                                               ; preds = %.preheader.us, %16
  %indvars.iv = phi i64 [ 0, %.preheader.us ], [ %indvars.iv.next, %16 ]
  %17 = getelementptr inbounds nuw i8, ptr %.03846.us, i64 %indvars.iv
  %18 = load i8, ptr %17, align 1, !tbaa !89
  %19 = zext i8 %18 to i32
  %20 = uitofp i8 %18 to float
  %21 = mul nuw nsw i32 %19, %19
  %.lhs.trunc.us = trunc nuw i32 %21 to i16
  %22 = udiv i16 %.lhs.trunc.us, 255
  %23 = getelementptr inbounds nuw i8, ptr %.03747.us, i64 %indvars.iv
  %24 = load i8, ptr %23, align 1, !tbaa !89
  %25 = zext i8 %24 to i16
  %26 = xor i32 %19, 255
  %27 = mul nuw nsw i32 %26, %19
  %.lhs.trunc40.us = trunc nuw i32 %27 to i16
  %28 = udiv i16 %.lhs.trunc40.us, 255
  %.lhs.trunc42.us = mul nuw i16 %28, %25
  %29 = udiv i16 %.lhs.trunc42.us, 255
  %30 = shl nuw nsw i16 %29, 1
  %narrow.us = add nuw nsw i16 %30, %22
  %31 = tail call i16 @llvm.umin.i16(i16 %narrow.us, i16 255)
  %32 = zext nneg i16 %31 to i32
  %33 = sub nsw i32 %32, %19
  %34 = sitofp i32 %33 to float
  %35 = tail call nsz float @llvm.fmuladd.f32(float %34, float %13, float %20)
  %36 = fptoui float %35 to i8
  %37 = getelementptr inbounds nuw i8, ptr %.03648.us, i64 %indvars.iv
  store i8 %36, ptr %37, align 1, !tbaa !89
  %indvars.iv.next = add nuw nsw i64 %indvars.iv, 1
  %exitcond.not = icmp eq i64 %indvars.iv.next, %6
  br i1 %exitcond.not, label %._crit_edge.us, label %16, !llvm.loop !150

._crit_edge.us:                                   ; preds = %16
  %38 = getelementptr inbounds i8, ptr %.03648.us, i64 %5
  %39 = getelementptr inbounds i8, ptr %.03846.us, i64 %1
  %40 = getelementptr inbounds i8, ptr %.03747.us, i64 %3
  %indvars.iv.next55 = add nuw nsw i64 %indvars.iv54, 1
  %exitcond57.not = icmp eq i64 %indvars.iv.next55, %7
  br i1 %exitcond57.not, label %._crit_edge50, label %.preheader.us, !llvm.loop !151

._crit_edge50:                                    ; preds = %._crit_edge.us, %10
  ret void
}